target datalayout = "e-m:e-p270:32:32-p271:32:32-p272:64:64-i64:64-i128:128-f80:128-n8:16:32:64-S128"
target triple = "x86_64-pc-linux-gnu"

%"class.boost::container::pmr::monotonic_buffer_resource" = type { %"class.boost::container::pmr::memory_resource", %"class.boost::container::pmr::block_slist", ptr, i64, i64, ptr, i64 }
%"class.boost::container::pmr::memory_resource" = type { ptr }
%"class.boost::container::pmr::block_slist" = type { %"class.boost::container::pmr::block_slist_base", ptr }
%"class.boost::container::pmr::block_slist_base" = type { %"struct.boost::container::pmr::slist_node" }
%"struct.boost::container::pmr::slist_node" = type { ptr }

; Function Attrs: mustprogress nounwind uwtable
define linkonce_odr hidden noundef i64 @_ZN5boost9intrusive6detail20builtin_clz_dispatchImE4callEm(i64 noundef %0) #0 comdat align 2 {
  %2 = alloca i64, align 8
  store i64 %0, ptr %2, align 8, !tbaa !14
  %3 = load i64, ptr %2, align 8, !tbaa !14
  %4 = call i64 @llvm.ctlz.i64(i64 %3, i1 true)
  %5 = trunc i64 %4 to i32
  %6 = sext i32 %5 to i64
  ret i64 %6
}

; Function Attrs: inlinehint mustprogress uwtable
define linkonce_odr hidden noundef i64 @_ZN5boost9intrusive6detail10floor_log2Em(i64 noundef %0) #3 comdat {
  %2 = alloca i64, align 8
  store i64 %0, ptr %2, align 8, !tbaa !14
  %3 = load i64, ptr %2, align 8, !tbaa !14
  %4 = call noundef i64 @_ZN5boost9intrusive6detail20builtin_clz_dispatchImE4callEm(i64 noundef %3)
  %5 = sub i64 63, %4
  ret i64 %5
}

; Function Attrs: inlinehint mustprogress uwtable
define linkonce_odr hidden noundef i64 @_ZN5boost9intrusive6detail9ceil_log2Em(i64 noundef %0) #3 comdat {
  %2 = alloca i64, align 8
  store i64 %0, ptr %2, align 8, !tbaa !14
  %3 = load i64, ptr %2, align 8, !tbaa !14
  %4 = call noundef zeroext i1 @_ZN5boost9intrusive6detail7is_pow2Em(i64 noundef %3)
  %5 = xor i1 %4, true
  %6 = zext i1 %5 to i64
  %7 = load i64, ptr %2, align 8, !tbaa !14
  %8 = call noundef i64 @_ZN5boost9intrusive6detail10floor_log2Em(i64 noundef %7)
  %9 = add i64 %6, %8
  ret i64 %9
}

; Function Attrs: inlinehint mustprogress uwtable
define linkonce_odr hidden noundef i64 @_ZN5boost9intrusive6detail9ceil_pow2Em(i64 noundef %0) #3 comdat {
  %2 = alloca i64, align 8
  store i64 %0, ptr %2, align 8, !tbaa !14
  %3 = load i64, ptr %2, align 8, !tbaa !14
  %4 = call noundef i64 @_ZN5boost9intrusive6detail9ceil_log2Em(i64 noundef %3)
  %5 = shl i64 1, %4
  ret i64 %5
}

; Function Attrs: inlinehint mustprogress nounwind uwtable
define linkonce_odr hidden noundef zeroext i1 @_ZN5boost9intrusive6detail7is_pow2Em(i64 noundef %0) #2 comdat {
  %2 = alloca i64, align 8
  store i64 %0, ptr %2, align 8, !tbaa !14
  %3 = load i64, ptr %2, align 8, !tbaa !14
  %4 = load i64, ptr %2, align 8, !tbaa !14
  %5 = sub i64 %4, 1
  %6 = and i64 %3, %5
  %7 = icmp eq i64 %6, 0
  ret i1 %7
}

; Function Attrs: mustprogress uwtable
define void @_ZN5boost9container3pmr25monotonic_buffer_resource32increase_next_buffer_at_least_toEm(ptr noundef nonnull align 8 dereferenceable(64) %0, i64 noundef %1) #1 align 2 {
  %3 = alloca ptr, align 8
  %4 = alloca i64, align 8
  store ptr %0, ptr %3, align 8, !tbaa !3
  store i64 %1, ptr %4, align 8, !tbaa !14
  %5 = load ptr, ptr %3, align 8
  %6 = getelementptr inbounds nuw %"class.boost::container::pmr::monotonic_buffer_resource", ptr %5, i32 0, i32 4
  %7 = load i64, ptr %6, align 8, !tbaa !7
  %8 = load i64, ptr %4, align 8, !tbaa !14
  %9 = icmp ult i64 %7, %8
  br i1 %9, label %10, label %28

10:                                               ; preds = %2
  %11 = load i64, ptr %4, align 8, !tbaa !14
  %12 = call noundef zeroext i1 @_ZN5boost9intrusive6detail7is_pow2Em(i64 noundef %11)
  br i1 %12, label %13, label %16

13:                                               ; preds = %10
  %14 = load i64, ptr %4, align 8, !tbaa !14
  %15 = getelementptr inbounds nuw %"class.boost::container::pmr::monotonic_buffer_resource", ptr %5, i32 0, i32 4
  store i64 %14, ptr %15, align 8, !tbaa !7
  br label %27

16:                                               ; preds = %10
  %17 = load i64, ptr %4, align 8, !tbaa !14
  %18 = icmp ult i64 9223372036854775807, %17
  br i1 %18, label %19, label %22

19:                                               ; preds = %16
  %20 = load i64, ptr %4, align 8, !tbaa !14
  %21 = getelementptr inbounds nuw %"class.boost::container::pmr::monotonic_buffer_resource", ptr %5, i32 0, i32 4
  store i64 %20, ptr %21, align 8, !tbaa !7
  br label %26

22:                                               ; preds = %16
  %23 = load i64, ptr %4, align 8, !tbaa !14
  %24 = call noundef i64 @_ZN5boost9intrusive6detail9ceil_pow2Em(i64 noundef %23)
  %25 = getelementptr inbounds nuw %"class.boost::container::pmr::monotonic_buffer_resource", ptr %5, i32 0, i32 4
  store i64 %24, ptr %25, align 8, !tbaa !7
  br label %26

26:                                               ; preds = %22, %19
  br label %27

27:                                               ; preds = %26, %13
  br label %28

28:                                               ; preds = %27, %2
  ret void
}