; Function Attrs: mustprogress nofree norecurse nosync nounwind willreturn memory(argmem: readwrite) uwtable
define void @_ZN5boost9container3pmr25monotonic_buffer_resource32increase_next_buffer_at_least_toEm(ptr nocapture noundef nonnull align 8 dereferenceable(64) %0, i64 noundef %1) local_unnamed_addr #0 align 2 {
  %3 = getelementptr inbounds nuw i8, ptr %0, i64 40
  %4 = load i64, ptr %3, align 8, !tbaa !3
  %5 = icmp ult i64 %4, %1
  br i1 %5, label %6, label %15

6:                                                ; preds = %2
  %7 = tail call range(i64 1, 65) i64 @llvm.ctpop.i64(i64 %1)
  %8 = icmp samesign ult i64 %7, 2
  %9 = icmp slt i64 %1, 0
  %or.cond = or i1 %8, %9
  br i1 %or.cond, label %.sink.split, label %10

10:                                               ; preds = %6
  %11 = add nsw i64 %1, -1
  %12 = tail call range(i64 0, 65) i64 @llvm.ctlz.i64(i64 %11, i1 false)
  %13 = sub nuw nsw i64 64, %12
  %14 = shl nuw i64 1, %13
  br label %.sink.split

.sink.split:                                      ; preds = %6, %10
  %.sink = phi i64 [ %14, %10 ], [ %1, %6 ]
  store i64 %.sink, ptr %3, align 8, !tbaa !3
  br label %15

15:                                               ; preds = %.sink.split, %2
  ret void
}